; ModuleID = '62/89.c'
source_filename = "62/89.c"
target datalayout = "e-m:e-p270:32:32-p271:32:32-p272:64:64-i64:64-f80:128-n8:16:32:64-S128"
target triple = "x86_64-pc-linux-gnu"

; Function Attrs: noinline nounwind uwtable
define dso_local i32 @main() #0 {
  %1 = alloca i32, align 4
  %2 = alloca [101 x i8], align 16
  %3 = alloca [101 x i8], align 16
  %4 = alloca i32, align 4
  %5 = alloca i32, align 4
  %6 = alloca i32, align 4
  store i32 0, i32* %1, align 4
  store i32 0, i32* %6, align 4
  %7 = getelementptr inbounds [101 x i8], [101 x i8]* %2, i64 0, i64 0
  %8 = call i32 (i8*, ...) bitcast (i32 (...)* @gets to i32 (i8*, ...)*)(i8* %7)
  %9 = getelementptr inbounds [101 x i8], [101 x i8]* %2, i64 0, i64 0
  %10 = call i64 @strlen(i8* %9) #3
  %11 = trunc i64 %10 to i32
  store i32 %11, i32* %4, align 4
  store i32 0, i32* %5, align 4
  br label %12

12:                                               ; preds = %44, %0
  %13 = load i32, i32* %5, align 4
  %14 = load i32, i32* %4, align 4
  %15 = sub nsw i32 %14, 1
  %16 = icmp slt i32 %13, %15
  br i1 %16, label %17, label %47

17:                                               ; preds = %12
  %18 = load i32, i32* %5, align 4
  %19 = sext i32 %18 to i64
  %20 = getelementptr inbounds [101 x i8], [101 x i8]* %2, i64 0, i64 %19
  %21 = load i8, i8* %20, align 1
  %22 = sext i8 %21 to i32
  %23 = icmp eq i32 %22, 32
  br i1 %23, label %24, label %33

24:                                               ; preds = %17
  %25 = load i32, i32* %5, align 4
  %26 = add nsw i32 %25, 1
  %27 = sext i32 %26 to i64
  %28 = getelementptr inbounds [101 x i8], [101 x i8]* %2, i64 0, i64 %27
  %29 = load i8, i8* %28, align 1
  %30 = sext i8 %29 to i32
  %31 = icmp eq i32 %30, 32
  br i1 %31, label %32, label %33

32:                                               ; preds = %24
  br label %44

33:                                               ; preds = %24, %17
  %34 = load i32, i32* %5, align 4
  %35 = sext i32 %34 to i64
  %36 = getelementptr inbounds [101 x i8], [101 x i8]* %2, i64 0, i64 %35
  %37 = load i8, i8* %36, align 1
  %38 = load i32, i32* %6, align 4
  %39 = sext i32 %38 to i64
  %40 = getelementptr inbounds [101 x i8], [101 x i8]* %3, i64 0, i64 %39
  store i8 %37, i8* %40, align 1
  %41 = load i32, i32* %6, align 4
  %42 = add nsw i32 %41, 1
  store i32 %42, i32* %6, align 4
  br label %43

43:                                               ; preds = %33
  br label %44

44:                                               ; preds = %43, %32
  %45 = load i32, i32* %5, align 4
  %46 = add nsw i32 %45, 1
  store i32 %46, i32* %5, align 4
  br label %12

47:                                               ; preds = %12
  %48 = load i32, i32* %4, align 4
  %49 = sub nsw i32 %48, 1
  %50 = sext i32 %49 to i64
  %51 = getelementptr inbounds [101 x i8], [101 x i8]* %2, i64 0, i64 %50
  %52 = load i8, i8* %51, align 1
  %53 = sext i8 %52 to i32
  %54 = icmp eq i32 %53, 32
  br i1 %54, label %55, label %59

55:                                               ; preds = %47
  %56 = load i32, i32* %6, align 4
  %57 = sext i32 %56 to i64
  %58 = getelementptr inbounds [101 x i8], [101 x i8]* %3, i64 0, i64 %57
  store i8 0, i8* %58, align 1
  br label %72

59:                                               ; preds = %47
  %60 = load i32, i32* %4, align 4
  %61 = sub nsw i32 %60, 1
  %62 = sext i32 %61 to i64
  %63 = getelementptr inbounds [101 x i8], [101 x i8]* %2, i64 0, i64 %62
  %64 = load i8, i8* %63, align 1
  %65 = load i32, i32* %6, align 4
  %66 = sext i32 %65 to i64
  %67 = getelementptr inbounds [101 x i8], [101 x i8]* %3, i64 0, i64 %66
  store i8 %64, i8* %67, align 1
  %68 = load i32, i32* %6, align 4
  %69 = add nsw i32 %68, 1
  %70 = sext i32 %69 to i64
  %71 = getelementptr inbounds [101 x i8], [101 x i8]* %3, i64 0, i64 %70
  store i8 0, i8* %71, align 1
  br label %72

72:                                               ; preds = %59, %55
  %73 = getelementptr inbounds [101 x i8], [101 x i8]* %3, i64 0, i64 0
  %74 = call i32 @puts(i8* %73)
  %75 = call i32 @getchar()
  %76 = load i32, i32* %1, align 4
  ret i32 %76
}

declare dso_local i32 @gets(...) #1

; Function Attrs: nounwind readonly
declare dso_local i64 @strlen(i8*) #2

declare dso_local i32 @puts(i8*) #1

declare dso_local i32 @getchar() #1


!llvm.module.flags = !{!0}
!llvm.ident = !{!1}

!0 = !{i32 1, !"wchar_size", i32 4}
!1 = !{!"clang version 10.0.0-4ubuntu1 "}
